; Function Attrs: nounwind uwtable
define void @lv_image_set_bitmap_map_src(ptr noundef %0, ptr noundef %1) local_unnamed_addr #0 {
  %.not = icmp eq ptr %0, null
  br i1 %.not, label %.preheader, label %3

.preheader:                                       ; preds = %2, %.preheader
  br label %.preheader

3:                                                ; preds = %2
  %4 = getelementptr inbounds nuw i8, ptr %0, i64 72
  store ptr %1, ptr %4, align 8, !tbaa !40
  tail call void @lv_obj_invalidate(ptr noundef nonnull %0) #6
  ret void
}